target datalayout = "e-m:e-p270:32:32-p271:32:32-p272:64:64-i64:64-i128:128-f80:128-n8:16:32:64-S128"
target triple = "x86_64-pc-linux-gnu"

%struct.CORD_fill_data = type { i64, i64, ptr }

@stderr = external global ptr, align 8
@.str = private unnamed_addr constant [4 x i8] c"%s\0A\00", align 1
@.str.1 = private unnamed_addr constant [14 x i8] c"Out of memory\00", align 1
@.str.2 = private unnamed_addr constant [26 x i8] c"CORD_fill_buf malfunction\00", align 1

; Function Attrs: nounwind uwtable
define internal i32 @CORD_fill_buf(ptr noundef %0, i64 noundef %1, i64 noundef %2, ptr noundef %3) #0 {
  %5 = alloca ptr, align 8
  %6 = alloca i64, align 8
  %7 = alloca i64, align 8
  %8 = alloca ptr, align 8
  %9 = alloca %struct.CORD_fill_data, align 8
  store ptr %0, ptr %5, align 8, !tbaa !3
  store i64 %1, ptr %6, align 8, !tbaa !11
  store i64 %2, ptr %7, align 8, !tbaa !11
  store ptr %3, ptr %8, align 8, !tbaa !3
  call void @llvm.lifetime.start.p0(i64 24, ptr %9) #9
  %10 = load i64, ptr %7, align 8, !tbaa !11
  %11 = getelementptr inbounds nuw %struct.CORD_fill_data, ptr %9, i32 0, i32 0
  store i64 %10, ptr %11, align 8, !tbaa !24
  %12 = load ptr, ptr %8, align 8, !tbaa !3
  %13 = getelementptr inbounds nuw %struct.CORD_fill_data, ptr %9, i32 0, i32 2
  store ptr %12, ptr %13, align 8, !tbaa !26
  %14 = getelementptr inbounds nuw %struct.CORD_fill_data, ptr %9, i32 0, i32 1
  store i64 0, ptr %14, align 8, !tbaa !27
  %15 = load ptr, ptr %5, align 8, !tbaa !3
  %16 = load i64, ptr %6, align 8, !tbaa !11
  %17 = call i32 @CORD_iter5(ptr noundef %15, i64 noundef %16, ptr noundef @CORD_fill_proc, ptr noundef @CORD_batched_fill_proc, ptr noundef %9)
  call void @llvm.lifetime.end.p0(i64 24, ptr %9) #9
  ret i32 %17
}

; Function Attrs: nounwind uwtable
define ptr @CORD_to_char_star(ptr noundef %0) #0 {
  %2 = alloca ptr, align 8
  %3 = alloca i64, align 8
  %4 = alloca ptr, align 8
  store ptr %0, ptr %2, align 8, !tbaa !3
  call void @llvm.lifetime.start.p0(i64 8, ptr %3) #9
  %5 = load ptr, ptr %2, align 8, !tbaa !3
  %6 = call i64 @CORD_len(ptr noundef %5)
  store i64 %6, ptr %3, align 8, !tbaa !11
  call void @llvm.lifetime.start.p0(i64 8, ptr %4) #9
  %7 = load i64, ptr %3, align 8, !tbaa !11
  %8 = add i64 %7, 1
  %9 = call noalias ptr @GC_malloc_atomic(i64 noundef %8) #10
  store ptr %9, ptr %4, align 8, !tbaa !3
  %10 = load ptr, ptr %4, align 8, !tbaa !3
  %11 = icmp eq ptr null, %10
  br i1 %11, label %12, label %15

12:                                               ; preds = %1
  call void @CORD__call_oom_fn()
  %13 = load ptr, ptr @stderr, align 8, !tbaa !9
  %14 = call i32 (ptr, ptr, ...) @fprintf(ptr noundef %13, ptr noundef @.str, ptr noundef @.str.1) #9
  call void @abort() #11
  unreachable

15:                                               ; preds = %1
  %16 = load i64, ptr %3, align 8, !tbaa !11
  %17 = icmp ugt i64 %16, 0
  br i1 %17, label %18, label %27

18:                                               ; preds = %15
  %19 = load ptr, ptr %2, align 8, !tbaa !3
  %20 = load i64, ptr %3, align 8, !tbaa !11
  %21 = load ptr, ptr %4, align 8, !tbaa !3
  %22 = call i32 @CORD_fill_buf(ptr noundef %19, i64 noundef 0, i64 noundef %20, ptr noundef %21)
  %23 = icmp ne i32 %22, 1
  br i1 %23, label %24, label %27

24:                                               ; preds = %18
  %25 = load ptr, ptr @stderr, align 8, !tbaa !9
  %26 = call i32 (ptr, ptr, ...) @fprintf(ptr noundef %25, ptr noundef @.str, ptr noundef @.str.2) #9
  call void @abort() #11
  unreachable

27:                                               ; preds = %18, %15
  %28 = load ptr, ptr %4, align 8, !tbaa !3
  %29 = load i64, ptr %3, align 8, !tbaa !11
  %30 = getelementptr inbounds nuw i8, ptr %28, i64 %29
  store i8 0, ptr %30, align 1, !tbaa !8
  %31 = load ptr, ptr %4, align 8, !tbaa !3
  call void @llvm.lifetime.end.p0(i64 8, ptr %4) #9
  call void @llvm.lifetime.end.p0(i64 8, ptr %3) #9
  ret ptr %31
}