; Function Attrs: nounwind uwtable
define nonnull ptr @CORD_to_char_star(ptr noundef %0) local_unnamed_addr #0 {
  %2 = alloca %struct.CORD_fill_data, align 8
  %3 = tail call i64 @CORD_len(ptr noundef %0) #16
  %4 = add i64 %3, 1
  %5 = tail call noalias ptr @GC_malloc_atomic(i64 noundef %4) #17
  %6 = icmp eq ptr %5, null
  br i1 %6, label %7, label %10

7:                                                ; preds = %1
  tail call void @CORD__call_oom_fn() #16
  %8 = load ptr, ptr @stderr, align 8, !tbaa !3
  %9 = tail call i32 (ptr, ptr, ...) @fprintf(ptr noundef %8, ptr noundef nonnull @.str, ptr noundef nonnull @.str.1) #18
  tail call void @abort() #19
  unreachable

10:                                               ; preds = %1
  %.not = icmp eq i64 %3, 0
  br i1 %.not, label %18, label %11

11:                                               ; preds = %10
  call void @llvm.lifetime.start.p0(i64 24, ptr nonnull %2) #16
  store i64 %3, ptr %2, align 8, !tbaa !22
  %12 = getelementptr inbounds nuw i8, ptr %2, i64 16
  store ptr %5, ptr %12, align 8, !tbaa !24
  %13 = getelementptr inbounds nuw i8, ptr %2, i64 8
  store i64 0, ptr %13, align 8, !tbaa !25
  %14 = call i32 @CORD_iter5(ptr noundef %0, i64 noundef 0, ptr noundef nonnull @CORD_fill_proc, ptr noundef nonnull @CORD_batched_fill_proc, ptr noundef nonnull %2) #16
  call void @llvm.lifetime.end.p0(i64 24, ptr nonnull %2) #16
  %.not10 = icmp eq i32 %14, 1
  br i1 %.not10, label %18, label %15

15:                                               ; preds = %11
  %16 = load ptr, ptr @stderr, align 8, !tbaa !3
  %17 = call i32 (ptr, ptr, ...) @fprintf(ptr noundef %16, ptr noundef nonnull @.str, ptr noundef nonnull @.str.2) #18
  call void @abort() #19
  unreachable

18:                                               ; preds = %11, %10
  %19 = getelementptr inbounds nuw i8, ptr %5, i64 %3
  store i8 0, ptr %19, align 1, !tbaa !8
  ret ptr %5
}